target datalayout = "e-m:e-p270:32:32-p271:32:32-p272:64:64-i64:64-i128:128-f80:128-n8:16:32:64-S128"
target triple = "x86_64-pc-linux-gnu"

%struct.JNINativeInterface_ = type { ptr, ptr, ptr, ptr, ptr, ptr, ptr, ptr, ptr, ptr, ptr, ptr, ptr, ptr, ptr, ptr, ptr, ptr, ptr, ptr, ptr, ptr, ptr, ptr, ptr, ptr, ptr, ptr, ptr, ptr, ptr, ptr, ptr, ptr, ptr, ptr, ptr, ptr, ptr, ptr, ptr, ptr, ptr, ptr, ptr, ptr, ptr, ptr, ptr, ptr, ptr, ptr, ptr, ptr, ptr, ptr, ptr, ptr, ptr, ptr, ptr, ptr, ptr, ptr, ptr, ptr, ptr, ptr, ptr, ptr, ptr, ptr, ptr, ptr, ptr, ptr, ptr, ptr, ptr, ptr, ptr, ptr, ptr, ptr, ptr, ptr, ptr, ptr, ptr, ptr, ptr, ptr, ptr, ptr, ptr, ptr, ptr, ptr, ptr, ptr, ptr, ptr, ptr, ptr, ptr, ptr, ptr, ptr, ptr, ptr, ptr, ptr, ptr, ptr, ptr, ptr, ptr, ptr, ptr, ptr, ptr, ptr, ptr, ptr, ptr, ptr, ptr, ptr, ptr, ptr, ptr, ptr, ptr, ptr, ptr, ptr, ptr, ptr, ptr, ptr, ptr, ptr, ptr, ptr, ptr, ptr, ptr, ptr, ptr, ptr, ptr, ptr, ptr, ptr, ptr, ptr, ptr, ptr, ptr, ptr, ptr, ptr, ptr, ptr, ptr, ptr, ptr, ptr, ptr, ptr, ptr, ptr, ptr, ptr, ptr, ptr, ptr, ptr, ptr, ptr, ptr, ptr, ptr, ptr, ptr, ptr, ptr, ptr, ptr, ptr, ptr, ptr, ptr, ptr, ptr, ptr, ptr, ptr, ptr, ptr, ptr, ptr, ptr, ptr, ptr, ptr, ptr, ptr, ptr, ptr, ptr, ptr, ptr, ptr, ptr, ptr, ptr, ptr, ptr, ptr, ptr, ptr, ptr, ptr, ptr, ptr, ptr, ptr, ptr, ptr, ptr, ptr, ptr, ptr, ptr }
%struct.lcmsProfile_s = type { ptr }

@.str.1 = private unnamed_addr constant [28 x i8] c"java/awt/color/CMMException\00", align 1
@.str.6 = private unnamed_addr constant [34 x i8] c"Can not access specified profile.\00", align 1

; Function Attrs: nounwind uwtable
define ptr @Java_sun_java2d_cmm_lcms_LCMS_getProfileDataNative(ptr noundef %0, ptr noundef %1, i64 noundef %2) #0 {
  %4 = alloca ptr, align 8
  %5 = alloca ptr, align 8
  %6 = alloca ptr, align 8
  %7 = alloca i64, align 8
  %8 = alloca ptr, align 8
  %9 = alloca i32, align 4
  %10 = alloca ptr, align 8
  %11 = alloca ptr, align 8
  %12 = alloca i32, align 4
  store ptr %0, ptr %5, align 8
  store ptr %1, ptr %6, align 8
  store i64 %2, ptr %7, align 8
  %13 = load i64, ptr %7, align 8
  %14 = inttoptr i64 %13 to ptr
  store ptr %14, ptr %8, align 8
  store i32 0, ptr %9, align 4
  %15 = load ptr, ptr %8, align 8
  %16 = getelementptr inbounds %struct.lcmsProfile_s, ptr %15, i32 0, i32 0
  %17 = load ptr, ptr %16, align 8
  %18 = call i32 @cmsSaveProfileToMem(ptr noundef %17, ptr noundef null, ptr noundef %9)
  %19 = icmp ne i32 %18, 0
  br i1 %19, label %31, label %20

20:                                               ; preds = %3
  %21 = load ptr, ptr %5, align 8
  %22 = load ptr, ptr %21, align 8
  %23 = getelementptr inbounds %struct.JNINativeInterface_, ptr %22, i32 0, i32 228
  %24 = load ptr, ptr %23, align 8
  %25 = load ptr, ptr %5, align 8
  %26 = call zeroext i8 %24(ptr noundef %25)
  %27 = icmp ne i8 %26, 0
  br i1 %27, label %30, label %28

28:                                               ; preds = %20
  %29 = load ptr, ptr %5, align 8
  call void @JNU_ThrowByName(ptr noundef %29, ptr noundef @.str.1, ptr noundef @.str.6)
  br label %30

30:                                               ; preds = %28, %20
  store ptr null, ptr %4, align 8
  br label %81

31:                                               ; preds = %3
  %32 = load ptr, ptr %5, align 8
  %33 = load ptr, ptr %32, align 8
  %34 = getelementptr inbounds %struct.JNINativeInterface_, ptr %33, i32 0, i32 176
  %35 = load ptr, ptr %34, align 8
  %36 = load ptr, ptr %5, align 8
  %37 = load i32, ptr %9, align 4
  %38 = call ptr %35(ptr noundef %36, i32 noundef %37)
  store ptr %38, ptr %10, align 8
  %39 = load ptr, ptr %10, align 8
  %40 = icmp eq ptr %39, null
  br i1 %40, label %41, label %42

41:                                               ; preds = %31
  store ptr null, ptr %4, align 8
  br label %81

42:                                               ; preds = %31
  %43 = load ptr, ptr %5, align 8
  %44 = load ptr, ptr %43, align 8
  %45 = getelementptr inbounds %struct.JNINativeInterface_, ptr %44, i32 0, i32 184
  %46 = load ptr, ptr %45, align 8
  %47 = load ptr, ptr %5, align 8
  %48 = load ptr, ptr %10, align 8
  %49 = call ptr %46(ptr noundef %47, ptr noundef %48, ptr noundef null)
  store ptr %49, ptr %11, align 8
  %50 = load ptr, ptr %11, align 8
  %51 = icmp eq ptr %50, null
  br i1 %51, label %52, label %53

52:                                               ; preds = %42
  store ptr null, ptr %4, align 8
  br label %81

53:                                               ; preds = %42
  %54 = load ptr, ptr %8, align 8
  %55 = getelementptr inbounds %struct.lcmsProfile_s, ptr %54, i32 0, i32 0
  %56 = load ptr, ptr %55, align 8
  %57 = load ptr, ptr %11, align 8
  %58 = call i32 @cmsSaveProfileToMem(ptr noundef %56, ptr noundef %57, ptr noundef %9)
  store i32 %58, ptr %12, align 4
  %59 = load ptr, ptr %5, align 8
  %60 = load ptr, ptr %59, align 8
  %61 = getelementptr inbounds %struct.JNINativeInterface_, ptr %60, i32 0, i32 192
  %62 = load ptr, ptr %61, align 8
  %63 = load ptr, ptr %5, align 8
  %64 = load ptr, ptr %10, align 8
  %65 = load ptr, ptr %11, align 8
  call void %62(ptr noundef %63, ptr noundef %64, ptr noundef %65, i32 noundef 0)
  %66 = load i32, ptr %12, align 4
  %67 = icmp ne i32 %66, 0
  br i1 %67, label %79, label %68

68:                                               ; preds = %53
  %69 = load ptr, ptr %5, align 8
  %70 = load ptr, ptr %69, align 8
  %71 = getelementptr inbounds %struct.JNINativeInterface_, ptr %70, i32 0, i32 228
  %72 = load ptr, ptr %71, align 8
  %73 = load ptr, ptr %5, align 8
  %74 = call zeroext i8 %72(ptr noundef %73)
  %75 = icmp ne i8 %74, 0
  br i1 %75, label %78, label %76

76:                                               ; preds = %68
  %77 = load ptr, ptr %5, align 8
  call void @JNU_ThrowByName(ptr noundef %77, ptr noundef @.str.1, ptr noundef @.str.6)
  br label %78

78:                                               ; preds = %76, %68
  store ptr null, ptr %4, align 8
  br label %81

79:                                               ; preds = %53
  %80 = load ptr, ptr %10, align 8
  store ptr %80, ptr %4, align 8
  br label %81

81:                                               ; preds = %79, %78, %52, %41, %30
  %82 = load ptr, ptr %4, align 8
  ret ptr %82
}