; Function Attrs: nounwind uwtable
define ptr @Java_sun_java2d_cmm_lcms_LCMS_getProfileDataNative(ptr noundef %0, ptr nocapture noundef readnone %1, i64 noundef %2) local_unnamed_addr #0 {
  %4 = alloca i32, align 4
  %5 = inttoptr i64 %2 to ptr
  store i32 0, ptr %4, align 4
  %6 = load ptr, ptr %5, align 8
  %7 = call i32 @cmsSaveProfileToMem(ptr noundef %6, ptr noundef null, ptr noundef nonnull %4) #8
  %.not = icmp eq i32 %7, 0
  %8 = load ptr, ptr %0, align 8
  br i1 %.not, label %9, label %13

9:                                                ; preds = %3
  %10 = getelementptr inbounds i8, ptr %8, i64 1824
  %11 = load ptr, ptr %10, align 8
  %12 = call zeroext i8 %11(ptr noundef nonnull %0) #8
  %.not25 = icmp eq i8 %12, 0
  br i1 %.not25, label %.sink.split, label %36

13:                                               ; preds = %3
  %14 = getelementptr inbounds i8, ptr %8, i64 1408
  %15 = load ptr, ptr %14, align 8
  %16 = load i32, ptr %4, align 4
  %17 = call ptr %15(ptr noundef nonnull %0, i32 noundef %16) #8
  %18 = icmp eq ptr %17, null
  br i1 %18, label %36, label %19

19:                                               ; preds = %13
  %20 = load ptr, ptr %0, align 8
  %21 = getelementptr inbounds i8, ptr %20, i64 1472
  %22 = load ptr, ptr %21, align 8
  %23 = call ptr %22(ptr noundef nonnull %0, ptr noundef nonnull %17, ptr noundef null) #8
  %24 = icmp eq ptr %23, null
  br i1 %24, label %36, label %25

25:                                               ; preds = %19
  %26 = load ptr, ptr %5, align 8
  %27 = call i32 @cmsSaveProfileToMem(ptr noundef %26, ptr noundef nonnull %23, ptr noundef nonnull %4) #8
  %28 = load ptr, ptr %0, align 8
  %29 = getelementptr inbounds i8, ptr %28, i64 1536
  %30 = load ptr, ptr %29, align 8
  call void %30(ptr noundef nonnull %0, ptr noundef nonnull %17, ptr noundef nonnull %23, i32 noundef 0) #8
  %.not26 = icmp eq i32 %27, 0
  br i1 %.not26, label %31, label %36

31:                                               ; preds = %25
  %32 = load ptr, ptr %0, align 8
  %33 = getelementptr inbounds i8, ptr %32, i64 1824
  %34 = load ptr, ptr %33, align 8
  %35 = call zeroext i8 %34(ptr noundef nonnull %0) #8
  %.not27 = icmp eq i8 %35, 0
  br i1 %.not27, label %.sink.split, label %36

.sink.split:                                      ; preds = %31, %9
  call void @JNU_ThrowByName(ptr noundef nonnull %0, ptr noundef nonnull @.str.1, ptr noundef nonnull @.str.6) #8
  br label %36

36:                                               ; preds = %.sink.split, %25, %31, %19, %13, %9
  %.0 = phi ptr [ null, %9 ], [ null, %13 ], [ null, %19 ], [ null, %31 ], [ %17, %25 ], [ null, %.sink.split ]
  ret ptr %.0
}